target datalayout = "e-m:e-p270:32:32-p271:32:32-p272:64:64-i64:64-i128:128-f80:128-n8:16:32:64-S128"
target triple = "x86_64-pc-linux-gnu"

%struct._ir_insn = type { %struct.anon, %union.anon.6 }
%struct.anon = type { %union.anon.0, %union.anon.5 }
%union.anon.0 = type { i32 }
%union.anon.5 = type { i32 }
%union.anon.6 = type { %union._ir_val }
%union._ir_val = type { double }
%struct._ir_ctx = type { ptr, i32, i32, i32, i32, i32, i32, i32, i32, i32, i32, %struct._ir_insn, ptr, ptr, ptr, i32, i32, i32, ptr, ptr, ptr, ptr, ptr, i32, i32, i64, i32, i32, i32, i64, i32, i32, i32, i32, ptr, ptr, ptr, ptr, ptr, ptr, %union.anon.14, ptr, i32, i32, i32, i64, i32, i32, i32, ptr, ptr, ptr, ptr, %struct._ir_strtab, [61 x i32], [14 x i32] }
%union.anon.14 = type { ptr }
%struct._ir_strtab = type { ptr, i32, i32, i32, i32, ptr, i32, i32 }
%struct._ir_backend_data = type { %struct._ir_reg_alloc_data, i32, ptr, ptr, i32, i32, i8, i8, i8, i8, i8 }
%struct._ir_reg_alloc_data = type { i32, i32, i32, ptr }

@ir_type_size = external constant [14 x i8], align 1

; Function Attrs: nounwind uwtable
define internal void @ir_emit_load_imm_int(ptr noundef %0, i32 noundef %1, i8 noundef signext %2, i64 noundef %3) #0 {
  %5 = alloca ptr, align 8
  %6 = alloca i32, align 4
  %7 = alloca i8, align 1
  %8 = alloca i64, align 8
  %9 = alloca ptr, align 8
  %10 = alloca ptr, align 8
  store ptr %0, ptr %5, align 8
  store i32 %1, ptr %6, align 4
  store i8 %2, ptr %7, align 1
  store i64 %3, ptr %8, align 8
  %11 = load ptr, ptr %5, align 8
  %12 = getelementptr inbounds %struct._ir_ctx, ptr %11, i32 0, i32 40
  %13 = load ptr, ptr %12, align 8
  store ptr %13, ptr %9, align 8
  %14 = load ptr, ptr %9, align 8
  %15 = getelementptr inbounds %struct._ir_backend_data, ptr %14, i32 0, i32 2
  store ptr %15, ptr %10, align 8
  %16 = load i64, ptr %8, align 8
  %17 = icmp eq i64 %16, 0
  br i1 %17, label %18, label %50

18:                                               ; preds = %4
  %19 = load i32, ptr %6, align 4
  %20 = zext i32 %19 to i64
  %21 = getelementptr inbounds [14 x i8], ptr @ir_type_size, i64 0, i64 %20
  %22 = load i8, ptr %21, align 1
  %23 = zext i8 %22 to i32
  switch i32 %23, label %24 [
    i32 1, label %25
    i32 2, label %31
    i32 4, label %37
    i32 8, label %43
  ]

24:                                               ; preds = %18
  br label %25

25:                                               ; preds = %24, %18
  %26 = load ptr, ptr %10, align 8
  %27 = load i8, ptr %7, align 1
  %28 = sext i8 %27 to i32
  %29 = load i8, ptr %7, align 1
  %30 = sext i8 %29 to i32
  call void (ptr, i32, ...) @dasm_put(ptr noundef %26, i32 noundef 0, i32 noundef %28, i32 noundef %30)
  br label %49

31:                                               ; preds = %18
  %32 = load ptr, ptr %10, align 8
  %33 = load i8, ptr %7, align 1
  %34 = sext i8 %33 to i32
  %35 = load i8, ptr %7, align 1
  %36 = sext i8 %35 to i32
  call void (ptr, i32, ...) @dasm_put(ptr noundef %32, i32 noundef 8, i32 noundef %34, i32 noundef %36)
  br label %49

37:                                               ; preds = %18
  %38 = load ptr, ptr %10, align 8
  %39 = load i8, ptr %7, align 1
  %40 = sext i8 %39 to i32
  %41 = load i8, ptr %7, align 1
  %42 = sext i8 %41 to i32
  call void (ptr, i32, ...) @dasm_put(ptr noundef %38, i32 noundef 9, i32 noundef %40, i32 noundef %42)
  br label %49

43:                                               ; preds = %18
  %44 = load ptr, ptr %10, align 8
  %45 = load i8, ptr %7, align 1
  %46 = sext i8 %45 to i32
  %47 = load i8, ptr %7, align 1
  %48 = sext i8 %47 to i32
  call void (ptr, i32, ...) @dasm_put(ptr noundef %44, i32 noundef 17, i32 noundef %46, i32 noundef %48)
  br label %49

49:                                               ; preds = %43, %37, %31, %25
  br label %124

50:                                               ; preds = %4
  %51 = load i32, ptr %6, align 4
  %52 = zext i32 %51 to i64
  %53 = getelementptr inbounds [14 x i8], ptr @ir_type_size, i64 0, i64 %52
  %54 = load i8, ptr %53, align 1
  %55 = zext i8 %54 to i32
  %56 = icmp eq i32 %55, 8
  br i1 %56, label %57, label %89

57:                                               ; preds = %50
  %58 = load i64, ptr %8, align 8
  %59 = icmp ule i64 %58, 4294967295
  br i1 %59, label %60, label %66

60:                                               ; preds = %57
  %61 = load ptr, ptr %10, align 8
  %62 = load i8, ptr %7, align 1
  %63 = sext i8 %62 to i32
  %64 = load i64, ptr %8, align 8
  %65 = trunc i64 %64 to i32
  call void (ptr, i32, ...) @dasm_put(ptr noundef %61, i32 noundef 25, i32 noundef %63, i32 noundef %65)
  br label %88

66:                                               ; preds = %57
  %67 = load i64, ptr %8, align 8
  %68 = icmp sle i64 %67, 2147483647
  br i1 %68, label %69, label %78

69:                                               ; preds = %66
  %70 = load i64, ptr %8, align 8
  %71 = icmp sge i64 %70, -2147483648
  br i1 %71, label %72, label %78

72:                                               ; preds = %69
  %73 = load ptr, ptr %10, align 8
  %74 = load i8, ptr %7, align 1
  %75 = sext i8 %74 to i32
  %76 = load i64, ptr %8, align 8
  %77 = trunc i64 %76 to i32
  call void (ptr, i32, ...) @dasm_put(ptr noundef %73, i32 noundef 31, i32 noundef %75, i32 noundef %77)
  br label %87

78:                                               ; preds = %69, %66
  %79 = load ptr, ptr %10, align 8
  %80 = load i8, ptr %7, align 1
  %81 = sext i8 %80 to i32
  %82 = load i64, ptr %8, align 8
  %83 = trunc i64 %82 to i32
  %84 = load i64, ptr %8, align 8
  %85 = ashr i64 %84, 32
  %86 = trunc i64 %85 to i32
  call void (ptr, i32, ...) @dasm_put(ptr noundef %79, i32 noundef 38, i32 noundef %81, i32 noundef %83, i32 noundef %86)
  br label %87

87:                                               ; preds = %78, %72
  br label %88

88:                                               ; preds = %87, %60
  br label %123

89:                                               ; preds = %50
  %90 = load i32, ptr %6, align 4
  %91 = zext i32 %90 to i64
  %92 = getelementptr inbounds [14 x i8], ptr @ir_type_size, i64 0, i64 %91
  %93 = load i8, ptr %92, align 1
  %94 = zext i8 %93 to i32
  switch i32 %94, label %95 [
    i32 1, label %96
    i32 2, label %103
    i32 4, label %110
    i32 8, label %116
  ]

95:                                               ; preds = %89
  br label %96

96:                                               ; preds = %95, %89
  %97 = load ptr, ptr %10, align 8
  %98 = load i8, ptr %7, align 1
  %99 = sext i8 %98 to i32
  %100 = load i64, ptr %8, align 8
  %101 = trunc i64 %100 to i32
  %102 = and i32 %101, 255
  call void (ptr, i32, ...) @dasm_put(ptr noundef %97, i32 noundef 45, i32 noundef %99, i32 noundef %102)
  br label %122

103:                                              ; preds = %89
  %104 = load ptr, ptr %10, align 8
  %105 = load i8, ptr %7, align 1
  %106 = sext i8 %105 to i32
  %107 = load i64, ptr %8, align 8
  %108 = trunc i64 %107 to i32
  %109 = and i32 %108, 65535
  call void (ptr, i32, ...) @dasm_put(ptr noundef %104, i32 noundef 51, i32 noundef %106, i32 noundef %109)
  br label %122

110:                                              ; preds = %89
  %111 = load ptr, ptr %10, align 8
  %112 = load i8, ptr %7, align 1
  %113 = sext i8 %112 to i32
  %114 = load i64, ptr %8, align 8
  %115 = trunc i64 %114 to i32
  call void (ptr, i32, ...) @dasm_put(ptr noundef %111, i32 noundef 25, i32 noundef %113, i32 noundef %115)
  br label %122

116:                                              ; preds = %89
  %117 = load ptr, ptr %10, align 8
  %118 = load i8, ptr %7, align 1
  %119 = sext i8 %118 to i32
  %120 = load i64, ptr %8, align 8
  %121 = trunc i64 %120 to i32
  call void (ptr, i32, ...) @dasm_put(ptr noundef %117, i32 noundef 31, i32 noundef %119, i32 noundef %121)
  br label %122

122:                                              ; preds = %116, %110, %103, %96
  br label %123

123:                                              ; preds = %122, %88
  br label %124

124:                                              ; preds = %123, %49
  ret void
}