; Function Attrs: nounwind uwtable
define internal fastcc void @ir_emit_load_imm_int(ptr nocapture readonly %.248.val, i32 noundef %0, i8 noundef signext %1, i64 noundef %2) unnamed_addr #1 {
  %4 = getelementptr inbounds i8, ptr %.248.val, i64 32
  %5 = icmp eq i64 %2, 0
  %6 = zext nneg i32 %0 to i64
  %7 = getelementptr inbounds [14 x i8], ptr @ir_type_size, i64 0, i64 %6
  %8 = load i8, ptr %7, align 1
  br i1 %5, label %9, label %15

9:                                                ; preds = %3
  %10 = sext i8 %1 to i32
  switch i8 %8, label %11 [
    i8 8, label %14
    i8 2, label %12
    i8 4, label %13
  ]

11:                                               ; preds = %9
  tail call void (ptr, i32, ...) @dasm_put(ptr noundef nonnull %4, i32 noundef 0, i32 noundef %10, i32 noundef %10)
  br label %40

12:                                               ; preds = %9
  tail call void (ptr, i32, ...) @dasm_put(ptr noundef nonnull %4, i32 noundef 8, i32 noundef %10, i32 noundef %10)
  br label %40

13:                                               ; preds = %9
  tail call void (ptr, i32, ...) @dasm_put(ptr noundef nonnull %4, i32 noundef 9, i32 noundef %10, i32 noundef %10)
  br label %40

14:                                               ; preds = %9
  tail call void (ptr, i32, ...) @dasm_put(ptr noundef nonnull %4, i32 noundef 17, i32 noundef %10, i32 noundef %10)
  br label %40

15:                                               ; preds = %3
  switch i8 %8, label %29 [
    i8 8, label %16
    i8 4, label %37
    i8 2, label %33
  ]

16:                                               ; preds = %15
  %17 = icmp ult i64 %2, 4294967296
  br i1 %17, label %18, label %21

18:                                               ; preds = %16
  %19 = sext i8 %1 to i32
  %20 = trunc i64 %2 to i32
  tail call void (ptr, i32, ...) @dasm_put(ptr noundef nonnull %4, i32 noundef 25, i32 noundef %19, i32 noundef %20)
  br label %40

21:                                               ; preds = %16
  %22 = add i64 %2, 2147483648
  %or.cond = icmp ult i64 %22, 4294967296
  %23 = sext i8 %1 to i32
  %24 = trunc i64 %2 to i32
  br i1 %or.cond, label %25, label %26

25:                                               ; preds = %21
  tail call void (ptr, i32, ...) @dasm_put(ptr noundef nonnull %4, i32 noundef 31, i32 noundef %23, i32 noundef %24)
  br label %40

26:                                               ; preds = %21
  %27 = lshr i64 %2, 32
  %28 = trunc i64 %27 to i32
  tail call void (ptr, i32, ...) @dasm_put(ptr noundef nonnull %4, i32 noundef 38, i32 noundef %23, i32 noundef %24, i32 noundef %28)
  br label %40

29:                                               ; preds = %15
  %30 = sext i8 %1 to i32
  %31 = trunc i64 %2 to i32
  %32 = and i32 %31, 255
  tail call void (ptr, i32, ...) @dasm_put(ptr noundef nonnull %4, i32 noundef 45, i32 noundef %30, i32 noundef %32)
  br label %40

33:                                               ; preds = %15
  %34 = sext i8 %1 to i32
  %35 = trunc i64 %2 to i32
  %36 = and i32 %35, 65535
  tail call void (ptr, i32, ...) @dasm_put(ptr noundef nonnull %4, i32 noundef 51, i32 noundef %34, i32 noundef %36)
  br label %40

37:                                               ; preds = %15
  %38 = sext i8 %1 to i32
  %39 = trunc i64 %2 to i32
  tail call void (ptr, i32, ...) @dasm_put(ptr noundef nonnull %4, i32 noundef 25, i32 noundef %38, i32 noundef %39)
  br label %40

40:                                               ; preds = %25, %26, %18, %37, %33, %29, %11, %12, %13, %14
  ret void
}